; Function Attrs: mustprogress null_pointer_is_valid sspstrong uwtable
define void @_ZN20EthernetAddressModelC2EP7QObject(ptr noundef align 8 dereferenceable_or_null(64) %0, ptr noundef %1) unnamed_addr #0 align 2 personality ptr @__gxx_personality_v0 {
  tail call void @_ZN20AStringListListModelC2EP7QObject(ptr noundef align 8 dereferenceable_or_null(64) %0, ptr noundef %1)
  store ptr getelementptr inbounds nuw inrange(-16, 408) (i8, ptr @_ZTV20EthernetAddressModel, i64 16), ptr %0, align 8
  invoke void @_ZN20EthernetAddressModel8populateEv(ptr noundef align 8 dereferenceable_or_null(64) %0)
          to label %3 unwind label %4

3:                                                ; preds = %2
  ret void

4:                                                ; preds = %2
  %5 = landingpad { ptr, i32 }
          cleanup
  tail call void @_ZN20AStringListListModelD2Ev(ptr noundef align 8 dereferenceable_or_null(64) %0) #14
  resume { ptr, i32 } %5
}